; Function Attrs: null_pointer_is_valid sspstrong uwtable
define hidden noundef zeroext i1 @tls13_exporter(ptr noundef %0, i1 noundef zeroext %1, ptr noundef %2, ptr noundef %3, i32 noundef %4, i32 noundef %5, ptr noundef %6) local_unnamed_addr #0 {
  %8 = alloca ptr, align 8
  %9 = alloca %struct._StringInfo, align 8
  %10 = tail call ptr @find_conversation_pinfo(ptr noundef %0, i32 noundef 0)
  %.not.i = icmp eq ptr %10, null
  br i1 %.not.i, label %tls_get_cipher_info.exit.thread, label %11

11:                                               ; preds = %7
  %12 = load i32, ptr @proto_tls, align 4
  %13 = tail call ptr @conversation_get_proto_data(ptr noundef nonnull %10, i32 noundef %12)
  %14 = icmp eq ptr %13, null
  br i1 %14, label %tls_get_cipher_info.exit.thread, label %15

15:                                               ; preds = %11
  %16 = getelementptr inbounds nuw i8, ptr %13, i64 648
  %17 = load i32, ptr %16, align 8
  %18 = and i32 %17, 65535
  %19 = tail call ptr @ssl_find_cipher(i32 noundef %18)
  %.not41.i = icmp eq ptr %19, null
  br i1 %.not41.i, label %tls_get_cipher_info.exit.thread, label %20

20:                                               ; preds = %15
  %21 = tail call i32 @ssl_get_cipher_algo(ptr noundef nonnull %19)
  %22 = getelementptr inbounds nuw i8, ptr %19, i64 12
  %23 = load i32, ptr %22, align 4
  %24 = add i32 %23, -64
  %25 = sext i32 %24 to i64
  %26 = getelementptr [5 x i32], ptr @tls_get_cipher_info.gcry_mds, i64 0, i64 %25
  %27 = load i32, ptr %26, align 4
  %28 = icmp ne i32 %21, 0
  %29 = icmp ne i32 %24, 4
  %or.cond3.not.i = and i1 %28, %29
  br i1 %or.cond3.not.i, label %tls_get_cipher_info.exit, label %tls_get_cipher_info.exit.thread

tls_get_cipher_info.exit:                         ; preds = %20
  %30 = getelementptr inbounds nuw i8, ptr %0, i64 280
  %31 = load i32, ptr %30, align 8
  %32 = tail call i32 @conversation_pt_to_conversation_type(i32 noundef %31)
  %33 = tail call ptr @find_conversation_strat(ptr noundef %0, i32 noundef %32, i32 noundef 0)
  %.not = icmp eq ptr %33, null
  br i1 %.not, label %tls_get_cipher_info.exit.thread, label %34

34:                                               ; preds = %tls_get_cipher_info.exit
  %35 = load i32, ptr @proto_tls, align 4
  %36 = tail call ptr @conversation_get_proto_data(ptr noundef nonnull %33, i32 noundef %35)
  %37 = icmp eq ptr %36, null
  br i1 %37, label %tls_get_cipher_info.exit.thread, label %38

38:                                               ; preds = %34
  %39 = load ptr, ptr getelementptr inbounds nuw (i8, ptr @ssl_options, i64 8), align 8
  tail call void @ssl_load_keyfile(ptr noundef %39, ptr noundef nonnull @ssl_keylog_file, ptr noundef nonnull @ssl_master_key_map)
  %40 = load ptr, ptr getelementptr inbounds nuw (i8, ptr @ssl_master_key_map, i64 80), align 8
  %41 = load ptr, ptr getelementptr inbounds nuw (i8, ptr @ssl_master_key_map, i64 88), align 8
  %42 = select i1 %1, ptr %40, ptr %41
  %43 = getelementptr inbounds nuw i8, ptr %36, i64 416
  %44 = tail call ptr @g_hash_table_lookup(ptr noundef %42, ptr noundef nonnull %43)
  %.not20 = icmp eq ptr %44, null
  br i1 %.not20, label %tls_get_cipher_info.exit.thread, label %45

45:                                               ; preds = %38
  call void @llvm.lifetime.start.p0(i64 8, ptr nonnull %8) #15
  call void @llvm.lifetime.start.p0(i64 16, ptr nonnull %9) #15
  call void @llvm.memset.p0.i64(ptr noundef nonnull align 8 dereferenceable(16) %9, i8 0, i64 16, i1 false)
  %46 = call i32 @gcry_md_open(ptr noundef nonnull %8, i32 noundef %27, i32 noundef 0)
  %.not.i21 = icmp eq i32 %46, 0
  br i1 %.not.i21, label %47, label %tls13_exporter_common.exit

47:                                               ; preds = %45
  %48 = load ptr, ptr %8, align 8
  %49 = call ptr @gcry_md_read(ptr noundef %48, i32 noundef 0)
  %50 = call i32 @gcry_md_get_algo_dlen(i32 noundef %27)
  %51 = trunc i32 %50 to i8
  %52 = and i32 %50, 255
  %53 = getelementptr inbounds nuw i8, ptr %9, i64 8
  store i32 %52, ptr %53, align 8
  %54 = trunc nuw nsw i32 %52 to i16
  %55 = call zeroext i1 @tls13_hkdf_expand_label_context(i32 noundef %27, ptr noundef nonnull %44, ptr noundef nonnull @.str.970, ptr noundef %2, ptr noundef %49, i8 noundef zeroext %51, i16 noundef zeroext %54, ptr noundef nonnull %9)
  %56 = load ptr, ptr %8, align 8
  br i1 %55, label %57, label %.sink.split.i

57:                                               ; preds = %47
  call void @gcry_md_reset(ptr noundef %56)
  %58 = load ptr, ptr %8, align 8
  %59 = zext i32 %4 to i64
  call void @gcry_md_write(ptr noundef %58, ptr noundef %3, i64 noundef %59)
  %60 = load ptr, ptr %8, align 8
  %61 = call ptr @gcry_md_read(ptr noundef %60, i32 noundef 0)
  %62 = trunc i32 %5 to i16
  %63 = call zeroext i1 @tls13_hkdf_expand_label_context(i32 noundef %27, ptr noundef nonnull %9, ptr noundef nonnull @.str.970, ptr noundef nonnull @.str.971, ptr noundef %61, i8 noundef zeroext %51, i16 noundef zeroext %62, ptr noundef %6)
  %64 = load ptr, ptr %9, align 8
  call void @wmem_free(ptr noundef null, ptr noundef %64)
  %65 = load ptr, ptr %8, align 8
  br label %.sink.split.i

.sink.split.i:                                    ; preds = %57, %47
  %.sink.i = phi ptr [ %65, %57 ], [ %56, %47 ]
  call void @gcry_md_close(ptr noundef %.sink.i)
  br label %tls13_exporter_common.exit

tls13_exporter_common.exit:                       ; preds = %45, %.sink.split.i
  %.0.i = phi i1 [ false, %45 ], [ %55, %.sink.split.i ]
  call void @llvm.lifetime.end.p0(i64 16, ptr nonnull %9) #15
  call void @llvm.lifetime.end.p0(i64 8, ptr nonnull %8) #15
  br label %tls_get_cipher_info.exit.thread

tls_get_cipher_info.exit.thread:                  ; preds = %11, %7, %20, %15, %tls_get_cipher_info.exit, %tls13_exporter_common.exit, %38, %34
  %.0 = phi i1 [ false, %tls_get_cipher_info.exit ], [ false, %34 ], [ %.0.i, %tls13_exporter_common.exit ], [ false, %38 ], [ false, %15 ], [ false, %20 ], [ false, %7 ], [ false, %11 ]
  ret i1 %.0
}